target datalayout = "e-m:e-p270:32:32-p271:32:32-p272:64:64-i64:64-i128:128-f80:128-n8:16:32:64-S128"
target triple = "x86_64-pc-linux-gnu"

%struct.t_psdata = type { ptr, %"class.std::vector", float, i32 }
%"class.std::vector" = type { %"struct.std::_Vector_base" }
%"struct.std::_Vector_base" = type { %"struct.std::_Vector_base<t_rgb, std::allocator<t_rgb>>::_Vector_impl" }
%"struct.std::_Vector_base<t_rgb, std::allocator<t_rgb>>::_Vector_impl" = type { %"struct.std::_Vector_base<t_rgb, std::allocator<t_rgb>>::_Vector_impl_data" }
%"struct.std::_Vector_base<t_rgb, std::allocator<t_rgb>>::_Vector_impl_data" = type { ptr, ptr, ptr }

@.str.63 = private unnamed_addr constant [12 x i8] c"%%showpage\0A\00", align 1
@.str.64 = private unnamed_addr constant [9 x i8] c"%%%%EOF\0A\00", align 1

; Function Attrs: mustprogress uwtable
define void @_Z8ps_closeP8t_psdata(ptr noundef %0) #0 {
  %2 = alloca ptr, align 8
  store ptr %0, ptr %2, align 8, !tbaa !26
  %3 = load ptr, ptr %2, align 8, !tbaa !26
  %4 = getelementptr inbounds nuw %struct.t_psdata, ptr %3, i32 0, i32 0
  %5 = load ptr, ptr %4, align 8, !tbaa !17
  %6 = call i32 (ptr, ptr, ...) @fprintf(ptr noundef %5, ptr noundef @.str.63) #14
  %7 = load ptr, ptr %2, align 8, !tbaa !26
  %8 = getelementptr inbounds nuw %struct.t_psdata, ptr %7, i32 0, i32 0
  %9 = load ptr, ptr %8, align 8, !tbaa !17
  %10 = call i32 (ptr, ptr, ...) @fprintf(ptr noundef %9, ptr noundef @.str.64) #14
  %11 = load ptr, ptr %2, align 8, !tbaa !26
  %12 = getelementptr inbounds nuw %struct.t_psdata, ptr %11, i32 0, i32 0
  %13 = load ptr, ptr %12, align 8, !tbaa !17
  %14 = call noundef i32 @_Z14gmx_fio_fcloseP8_IO_FILE(ptr noundef %13)
  ret void
}