; Function Attrs: mustprogress uwtable
define void @_Z8ps_closeP8t_psdata(ptr noundef readonly captures(none) %0) local_unnamed_addr #3 {
  %2 = load ptr, ptr %0, align 8, !tbaa !9
  %3 = tail call i32 (ptr, ptr, ...) @fprintf(ptr noundef %2, ptr noundef nonnull @.str.63) #18
  %4 = load ptr, ptr %0, align 8, !tbaa !9
  %5 = tail call i32 (ptr, ptr, ...) @fprintf(ptr noundef %4, ptr noundef nonnull @.str.64) #18
  %6 = load ptr, ptr %0, align 8, !tbaa !9
  %7 = tail call noundef i32 @_Z14gmx_fio_fcloseP8_IO_FILE(ptr noundef %6)
  ret void
}